target datalayout = "e-m:e-p270:32:32-p271:32:32-p272:64:64-i64:64-i128:128-f80:128-n8:16:32:64-S128"
target triple = "x86_64-pc-linux-gnu"

; Function Attrs: null_pointer_is_valid sspstrong uwtable
define internal zeroext i1 @test_mndp(ptr noundef %0) #0 {
  %2 = alloca i1, align 1
  %3 = alloca ptr, align 8
  %4 = alloca i32, align 4
  %5 = alloca i32, align 4
  %6 = alloca i32, align 4
  %7 = alloca i32, align 4
  store ptr %0, ptr %3, align 8
  call void @llvm.lifetime.start.p0(i64 4, ptr %4) #5
  store i32 0, ptr %4, align 4
  call void @llvm.lifetime.start.p0(i64 4, ptr %5) #5
  call void @llvm.lifetime.start.p0(i64 4, ptr %6) #5
  %8 = load ptr, ptr %3, align 8
  %9 = call i32 @tvb_captured_length(ptr noundef %8)
  %10 = icmp ult i32 %9, 8
  br i1 %10, label %11, label %12

11:                                               ; preds = %1
  store i1 false, ptr %2, align 1
  store i32 1, ptr %7, align 4
  br label %56

12:                                               ; preds = %1
  %13 = load i32, ptr %4, align 4
  %14 = add i32 %13, 4
  store i32 %14, ptr %4, align 4
  %15 = load ptr, ptr %3, align 8
  %16 = load i32, ptr %4, align 4
  %17 = call zeroext i16 @tvb_get_uint16(ptr noundef %15, i32 noundef %16, i32 noundef 0)
  %18 = zext i16 %17 to i32
  store i32 %18, ptr %5, align 4
  %19 = load i32, ptr %5, align 4
  %20 = icmp ne i32 %19, 1
  br i1 %20, label %21, label %22

21:                                               ; preds = %12
  store i1 false, ptr %2, align 1
  store i32 1, ptr %7, align 4
  br label %56

22:                                               ; preds = %12
  %23 = load i32, ptr %4, align 4
  %24 = add i32 %23, 2
  store i32 %24, ptr %4, align 4
  %25 = load ptr, ptr %3, align 8
  %26 = load i32, ptr %4, align 4
  %27 = call zeroext i16 @tvb_get_uint16(ptr noundef %25, i32 noundef %26, i32 noundef 0)
  %28 = zext i16 %27 to i32
  store i32 %28, ptr %6, align 4
  %29 = load i32, ptr %6, align 4
  %30 = icmp ne i32 %29, 6
  br i1 %30, label %31, label %32

31:                                               ; preds = %22
  store i1 false, ptr %2, align 1
  store i32 1, ptr %7, align 4
  br label %56

32:                                               ; preds = %22
  %33 = load i32, ptr %4, align 4
  %34 = add i32 %33, 2
  store i32 %34, ptr %4, align 4
  %35 = load ptr, ptr %3, align 8
  %36 = load i32, ptr %4, align 4
  %37 = call i32 @tvb_reported_length_remaining(ptr noundef %35, i32 noundef %36)
  %38 = load i32, ptr %6, align 4
  %39 = icmp slt i32 %37, %38
  br i1 %39, label %40, label %41

40:                                               ; preds = %32
  store i1 false, ptr %2, align 1
  store i32 1, ptr %7, align 4
  br label %56

41:                                               ; preds = %32
  %42 = load i32, ptr %6, align 4
  %43 = load i32, ptr %4, align 4
  %44 = add i32 %43, %42
  store i32 %44, ptr %4, align 4
  %45 = load ptr, ptr %3, align 8
  %46 = load i32, ptr %4, align 4
  %47 = call i32 @tvb_reported_length_remaining(ptr noundef %45, i32 noundef %46)
  %48 = icmp sgt i32 %47, 0
  br i1 %48, label %49, label %55

49:                                               ; preds = %41
  %50 = load ptr, ptr %3, align 8
  %51 = load i32, ptr %4, align 4
  %52 = call i32 @tvb_reported_length_remaining(ptr noundef %50, i32 noundef %51)
  %53 = icmp slt i32 %52, 4
  br i1 %53, label %54, label %55

54:                                               ; preds = %49
  store i1 false, ptr %2, align 1
  store i32 1, ptr %7, align 4
  br label %56

55:                                               ; preds = %49, %41
  store i1 true, ptr %2, align 1
  store i32 1, ptr %7, align 4
  br label %56

56:                                               ; preds = %55, %54, %40, %31, %21, %11
  call void @llvm.lifetime.end.p0(i64 4, ptr %6) #5
  call void @llvm.lifetime.end.p0(i64 4, ptr %5) #5
  call void @llvm.lifetime.end.p0(i64 4, ptr %4) #5
  %57 = load i1, ptr %2, align 1
  ret i1 %57
}