; Function Attrs: null_pointer_is_valid sspstrong uwtable
define internal fastcc noundef zeroext i1 @test_mndp(ptr noundef %0) unnamed_addr #0 {
  %2 = tail call i32 @tvb_captured_length(ptr noundef %0)
  %3 = icmp ult i32 %2, 8
  br i1 %3, label %18, label %4

4:                                                ; preds = %1
  %5 = tail call zeroext i16 @tvb_get_uint16(ptr noundef %0, i32 noundef 4, i32 noundef 0)
  %.not = icmp eq i16 %5, 1
  br i1 %.not, label %6, label %18

6:                                                ; preds = %4
  %7 = tail call zeroext i16 @tvb_get_uint16(ptr noundef %0, i32 noundef 6, i32 noundef 0)
  %.not20 = icmp eq i16 %7, 6
  br i1 %.not20, label %8, label %18

8:                                                ; preds = %6
  %9 = tail call i32 @tvb_reported_length_remaining(ptr noundef %0, i32 noundef 8)
  %10 = icmp slt i32 %9, 6
  br i1 %10, label %18, label %11

11:                                               ; preds = %8
  %12 = tail call i32 @tvb_reported_length_remaining(ptr noundef %0, i32 noundef 14)
  %13 = icmp sgt i32 %12, 0
  br i1 %13, label %14, label %17

14:                                               ; preds = %11
  %15 = tail call i32 @tvb_reported_length_remaining(ptr noundef %0, i32 noundef 14)
  %16 = icmp slt i32 %15, 4
  br i1 %16, label %18, label %17

17:                                               ; preds = %14, %11
  br label %18

18:                                               ; preds = %14, %8, %6, %4, %1, %17
  %.0 = phi i1 [ true, %17 ], [ false, %1 ], [ false, %4 ], [ false, %6 ], [ false, %8 ], [ false, %14 ]
  ret i1 %.0
}